; Function Attrs: mustprogress nofree norecurse nosync nounwind willreturn memory(read, argmem: readwrite, inaccessiblemem: none) uwtable
define dso_local i32 @_ZNK4llvm14RISCVInstrInfo19isLoadFromStackSlotERKNS_12MachineInstrERiRj(ptr nocapture nonnull readnone align 8 %0, ptr nocapture noundef nonnull readonly align 8 dereferenceable(70) %1, ptr nocapture noundef nonnull writeonly align 4 dereferenceable(4) %2, ptr nocapture noundef nonnull writeonly align 4 dereferenceable(4) %3) unnamed_addr #5 align 2 {
  %5 = getelementptr inbounds nuw i8, ptr %1, i64 68
  %6 = load i16, ptr %5, align 4
  switch i16 %6, label %32 [
    i16 12785, label %10
    i16 12786, label %10
    i16 12792, label %7
    i16 12793, label %7
    i16 12624, label %7
    i16 12805, label %8
    i16 12638, label %8
    i16 12806, label %8
    i16 12789, label %9
    i16 12613, label %9
  ]

7:                                                ; preds = %4, %4, %4
  br label %10

8:                                                ; preds = %4, %4, %4
  br label %10

9:                                                ; preds = %4, %4
  br label %10

10:                                               ; preds = %4, %4, %9, %8, %7
  %.sink = phi i32 [ 8, %9 ], [ 4, %8 ], [ 2, %7 ], [ 1, %4 ], [ 1, %4 ]
  store i32 %.sink, ptr %3, align 4
  %11 = getelementptr inbounds nuw i8, ptr %1, i64 32
  %12 = load ptr, ptr %11, align 8
  %13 = getelementptr inbounds i8, ptr %12, i64 32
  %14 = load i32, ptr %13, align 8
  %15 = and i32 %14, 255
  %16 = icmp eq i32 %15, 5
  br i1 %16, label %17, label %32

17:                                               ; preds = %10
  %18 = getelementptr inbounds i8, ptr %12, i64 64
  %19 = load i32, ptr %18, align 8
  %20 = and i32 %19, 255
  %21 = icmp eq i32 %20, 1
  br i1 %21, label %22, label %32

22:                                               ; preds = %17
  %23 = getelementptr inbounds i8, ptr %12, i64 80
  %24 = load i64, ptr %23, align 8
  %25 = icmp eq i64 %24, 0
  br i1 %25, label %26, label %32

26:                                               ; preds = %22
  %27 = getelementptr inbounds i8, ptr %12, i64 48
  %28 = load i32, ptr %27, align 8
  store i32 %28, ptr %2, align 4
  %29 = load ptr, ptr %11, align 8
  %30 = getelementptr inbounds nuw i8, ptr %29, i64 4
  %31 = load i32, ptr %30, align 4
  br label %32

32:                                               ; preds = %10, %17, %22, %4, %26
  %.sroa.0.0 = phi i32 [ %31, %26 ], [ 0, %4 ], [ 0, %22 ], [ 0, %17 ], [ 0, %10 ]
  ret i32 %.sroa.0.0
}